target datalayout = "e-m:e-p270:32:32-p271:32:32-p272:64:64-i64:64-i128:128-f80:128-n8:16:32:64-S128"
target triple = "x86_64-pc-linux-gnu"

%struct.XLogwrtResult = type { i64, i64 }
%struct.XLogCtlData = type { %struct.XLogCtlInsert, %struct.XLogwrtRqst, i64, %struct.FullTransactionId, i64, i64, i64, %struct.pg_atomic_uint64, i64, i64, %struct.pg_atomic_uint64, %struct.pg_atomic_uint64, %struct.pg_atomic_uint64, i64, ptr, ptr, i32, i32, i32, i32, i8, i8, i64, i64, %struct.CheckPoint, i64, i8 }
%struct.XLogCtlInsert = type { i8, i64, i64, [128 x i8], i64, i8, i32, i64, ptr }
%struct.XLogwrtRqst = type { i64, i64 }
%struct.FullTransactionId = type { i64 }
%struct.pg_atomic_uint64 = type { i64 }
%struct.CheckPoint = type { i64, i32, i32, i8, i32, %struct.FullTransactionId, i32, i32, i32, i32, i32, i32, i32, i64, i32, i32, i32 }
%struct.LWLock = type { i16, %struct.pg_atomic_uint32, %struct.proclist_head }
%struct.pg_atomic_uint32 = type { i32 }
%struct.proclist_head = type { i32, i32 }
%struct.PROC_HDR = type { ptr, ptr, ptr, ptr, i32, %struct.dlist_head, %struct.dlist_head, %struct.dlist_head, %struct.dlist_head, %struct.pg_atomic_uint32, %struct.pg_atomic_uint32, i32, i32, i32, i32 }
%struct.dlist_head = type { %struct.dlist_node }
%struct.dlist_node = type { ptr, ptr }
%struct.PGPROC = type { %struct.dlist_node, ptr, ptr, i32, %struct.Latch, i32, i32, i32, i32, %struct.anon, i32, i32, i32, i8, i8, i8, i8, %struct.proclist_node, %struct.proclist_node, ptr, ptr, i32, i32, %struct.pg_atomic_uint64, i32, i8, i64, i32, %struct.dlist_node, [16 x %struct.dlist_head], %struct.XidCacheStatus, %struct.XidCache, i8, %struct.pg_atomic_uint32, i32, i32, i8, %struct.pg_atomic_uint32, i32, i32, i64, i64, %struct.LWLock, ptr, ptr, i8, i32, ptr, %struct.dlist_head, %struct.dlist_node }
%struct.Latch = type { i32, i32, i8, i32 }
%struct.anon = type { i32, i32 }
%struct.proclist_node = type { i32, i32 }
%struct.XidCacheStatus = type { i8, i8 }
%struct.XidCache = type { [64 x i32] }

@XLogCtl = internal global ptr null, align 8
@.str.14 = private unnamed_addr constant [7 x i8] c"xlog.c\00", align 1
@LogwrtResult = internal global %struct.XLogwrtResult zeroinitializer, align 8
@__func__.XLogSetAsyncXactLSN = private unnamed_addr constant [20 x i8] c"XLogSetAsyncXactLSN\00", align 1
@WalWriterFlushAfter = external global i32, align 4
@ProcGlobal = external global ptr, align 8

; Function Attrs: inlinehint nounwind uwtable
define internal i64 @pg_atomic_read_u64_impl(ptr noundef %0) #6 {
  %2 = alloca ptr, align 8
  store ptr %0, ptr %2, align 8
  %3 = load ptr, ptr %2, align 8
  %4 = getelementptr inbounds nuw %struct.pg_atomic_uint64, ptr %3, i32 0, i32 0
  %5 = load volatile i64, ptr %4, align 8
  ret i64 %5
}

; Function Attrs: inlinehint nounwind uwtable
define internal i64 @pg_atomic_read_u64(ptr noundef %0) #6 {
  %2 = alloca ptr, align 8
  store ptr %0, ptr %2, align 8
  %3 = load ptr, ptr %2, align 8
  %4 = call i64 @pg_atomic_read_u64_impl(ptr noundef %3)
  ret i64 %4
}

; Function Attrs: inlinehint nounwind uwtable
define internal i32 @tas(ptr noundef %0) #6 {
  %2 = alloca ptr, align 8
  %3 = alloca i8, align 1
  store ptr %0, ptr %2, align 8
  call void @llvm.lifetime.start.p0(i64 1, ptr %3) #16
  store i8 1, ptr %3, align 1
  %4 = load i8, ptr %3, align 1
  %5 = load ptr, ptr %2, align 8
  %6 = call i8 asm sideeffect "\09lock\09\09\09\0A\09xchgb\09$0,$1\09\0A", "=q,=*m,0,*m,~{memory},~{cc},~{dirflag},~{fpsr},~{flags}"(ptr elementtype(i8) %5, i8 %4, ptr elementtype(i8) %5) #16, !srcloc !18
  store i8 %6, ptr %3, align 1
  %7 = load i8, ptr %3, align 1
  %8 = zext i8 %7 to i32
  call void @llvm.lifetime.end.p0(i64 1, ptr %3) #16
  ret i32 %8
}

; Function Attrs: nounwind uwtable
define dso_local void @XLogSetAsyncXactLSN(i64 noundef %0) #0 {
  %2 = alloca i64, align 8
  %3 = alloca i64, align 8
  %4 = alloca i8, align 1
  %5 = alloca i8, align 1
  %6 = alloca i64, align 8
  %7 = alloca i32, align 4
  %8 = alloca i32, align 4
  %9 = alloca ptr, align 8
  %10 = alloca i32, align 4
  store i64 %0, ptr %2, align 8
  call void @llvm.lifetime.start.p0(i64 8, ptr %3) #16
  %11 = load i64, ptr %2, align 8
  store i64 %11, ptr %3, align 8
  call void @llvm.lifetime.start.p0(i64 1, ptr %4) #16
  call void @llvm.lifetime.start.p0(i64 1, ptr %5) #16
  store i8 0, ptr %5, align 1
  call void @llvm.lifetime.start.p0(i64 8, ptr %6) #16
  %12 = load ptr, ptr @XLogCtl, align 8
  %13 = getelementptr inbounds nuw %struct.XLogCtlData, ptr %12, i32 0, i32 26
  %14 = call i32 @tas(ptr noundef %13)
  %15 = icmp ne i32 %14, 0
  br i1 %15, label %16, label %20

16:                                               ; preds = %1
  %17 = load ptr, ptr @XLogCtl, align 8
  %18 = getelementptr inbounds nuw %struct.XLogCtlData, ptr %17, i32 0, i32 26
  %19 = call i32 @s_lock(ptr noundef %18, ptr noundef @.str.14, i32 noundef 2641, ptr noundef @__func__.XLogSetAsyncXactLSN)
  br label %21

20:                                               ; preds = %1
  br label %21

21:                                               ; preds = %20, %16
  %22 = load ptr, ptr @XLogCtl, align 8
  %23 = getelementptr inbounds nuw %struct.XLogCtlData, ptr %22, i32 0, i32 21
  %24 = load i8, ptr %23, align 1, !range !4, !noundef !5
  %25 = trunc i8 %24 to i1
  %26 = zext i1 %25 to i8
  store i8 %26, ptr %4, align 1
  %27 = load ptr, ptr @XLogCtl, align 8
  %28 = getelementptr inbounds nuw %struct.XLogCtlData, ptr %27, i32 0, i32 4
  %29 = load i64, ptr %28, align 8
  store i64 %29, ptr %6, align 8
  %30 = load ptr, ptr @XLogCtl, align 8
  %31 = getelementptr inbounds nuw %struct.XLogCtlData, ptr %30, i32 0, i32 4
  %32 = load i64, ptr %31, align 8
  %33 = load i64, ptr %2, align 8
  %34 = icmp ult i64 %32, %33
  br i1 %34, label %35, label %39

35:                                               ; preds = %21
  %36 = load i64, ptr %2, align 8
  %37 = load ptr, ptr @XLogCtl, align 8
  %38 = getelementptr inbounds nuw %struct.XLogCtlData, ptr %37, i32 0, i32 4
  store i64 %36, ptr %38, align 8
  br label %39

39:                                               ; preds = %35, %21
  br label %40

40:                                               ; preds = %39
  call void asm sideeffect "", "~{memory},~{dirflag},~{fpsr},~{flags}"() #16, !srcloc !25
  %41 = load ptr, ptr @XLogCtl, align 8
  %42 = getelementptr inbounds nuw %struct.XLogCtlData, ptr %41, i32 0, i32 26
  store i8 0, ptr %42, align 8
  br label %43

43:                                               ; preds = %40
  br label %44

44:                                               ; preds = %43
  %45 = load i64, ptr %2, align 8
  %46 = load i64, ptr %6, align 8
  %47 = icmp ule i64 %45, %46
  br i1 %47, label %48, label %49

48:                                               ; preds = %44
  store i32 1, ptr %7, align 4
  br label %97

49:                                               ; preds = %44
  %50 = load i8, ptr %4, align 1, !range !4, !noundef !5
  %51 = trunc i8 %50 to i1
  br i1 %51, label %52, label %53

52:                                               ; preds = %49
  store i8 1, ptr %5, align 1
  br label %77

53:                                               ; preds = %49
  call void @llvm.lifetime.start.p0(i64 4, ptr %8) #16
  br label %54

54:                                               ; preds = %53
  %55 = load ptr, ptr @XLogCtl, align 8
  %56 = getelementptr inbounds nuw %struct.XLogCtlData, ptr %55, i32 0, i32 12
  %57 = call i64 @pg_atomic_read_u64(ptr noundef %56)
  store i64 %57, ptr getelementptr inbounds nuw (%struct.XLogwrtResult, ptr @LogwrtResult, i32 0, i32 1), align 8
  call void asm sideeffect "", "~{memory},~{dirflag},~{fpsr},~{flags}"() #16, !srcloc !26
  %58 = load ptr, ptr @XLogCtl, align 8
  %59 = getelementptr inbounds nuw %struct.XLogCtlData, ptr %58, i32 0, i32 11
  %60 = call i64 @pg_atomic_read_u64(ptr noundef %59)
  store i64 %60, ptr @LogwrtResult, align 8
  br label %61

61:                                               ; preds = %54
  br label %62

62:                                               ; preds = %61
  %63 = load i64, ptr %3, align 8
  %64 = udiv i64 %63, 8192
  %65 = load i64, ptr getelementptr inbounds nuw (%struct.XLogwrtResult, ptr @LogwrtResult, i32 0, i32 1), align 8
  %66 = udiv i64 %65, 8192
  %67 = sub i64 %64, %66
  %68 = trunc i64 %67 to i32
  store i32 %68, ptr %8, align 4
  %69 = load i32, ptr @WalWriterFlushAfter, align 4
  %70 = icmp eq i32 %69, 0
  br i1 %70, label %75, label %71

71:                                               ; preds = %62
  %72 = load i32, ptr %8, align 4
  %73 = load i32, ptr @WalWriterFlushAfter, align 4
  %74 = icmp sge i32 %72, %73
  br i1 %74, label %75, label %76

75:                                               ; preds = %71, %62
  store i8 1, ptr %5, align 1
  br label %76

76:                                               ; preds = %75, %71
  call void @llvm.lifetime.end.p0(i64 4, ptr %8) #16
  br label %77

77:                                               ; preds = %76, %52
  %78 = load i8, ptr %5, align 1, !range !4, !noundef !5
  %79 = trunc i8 %78 to i1
  br i1 %79, label %80, label %96

80:                                               ; preds = %77
  call void @llvm.lifetime.start.p0(i64 8, ptr %9) #16
  %81 = load ptr, ptr @ProcGlobal, align 8
  store ptr %81, ptr %9, align 8
  call void @llvm.lifetime.start.p0(i64 4, ptr %10) #16
  %82 = load ptr, ptr %9, align 8
  %83 = getelementptr inbounds nuw %struct.PROC_HDR, ptr %82, i32 0, i32 11
  %84 = load volatile i32, ptr %83, align 8
  store i32 %84, ptr %10, align 4
  %85 = load i32, ptr %10, align 4
  %86 = icmp ne i32 %85, -1
  br i1 %86, label %87, label %95

87:                                               ; preds = %80
  %88 = load ptr, ptr @ProcGlobal, align 8
  %89 = getelementptr inbounds nuw %struct.PROC_HDR, ptr %88, i32 0, i32 0
  %90 = load ptr, ptr %89, align 8
  %91 = load i32, ptr %10, align 4
  %92 = sext i32 %91 to i64
  %93 = getelementptr inbounds %struct.PGPROC, ptr %90, i64 %92
  %94 = getelementptr inbounds nuw %struct.PGPROC, ptr %93, i32 0, i32 4
  call void @SetLatch(ptr noundef %94)
  br label %95

95:                                               ; preds = %87, %80
  call void @llvm.lifetime.end.p0(i64 4, ptr %10) #16
  call void @llvm.lifetime.end.p0(i64 8, ptr %9) #16
  br label %96

96:                                               ; preds = %95, %77
  store i32 0, ptr %7, align 4
  br label %97

97:                                               ; preds = %96, %48
  call void @llvm.lifetime.end.p0(i64 8, ptr %6) #16
  call void @llvm.lifetime.end.p0(i64 1, ptr %5) #16
  call void @llvm.lifetime.end.p0(i64 1, ptr %4) #16
  call void @llvm.lifetime.end.p0(i64 8, ptr %3) #16
  %98 = load i32, ptr %7, align 4
  switch i32 %98, label %100 [
    i32 0, label %99
    i32 1, label %99
  ]

99:                                               ; preds = %97, %97
  ret void

100:                                              ; preds = %97
  unreachable
}