; Function Attrs: nounwind uwtable
define dso_local void @XLogSetAsyncXactLSN(i64 noundef %0) local_unnamed_addr #0 {
  %2 = load ptr, ptr @XLogCtl, align 8
  %3 = getelementptr inbounds nuw i8, ptr %2, i64 448
  %4 = tail call i8 asm sideeffect "\09lock\09\09\09\0A\09xchgb\09$0,$1\09\0A", "=q,=*m,0,*m,~{memory},~{cc},~{dirflag},~{fpsr},~{flags}"(ptr nonnull elementtype(i8) %3, i8 1, ptr nonnull elementtype(i8) %3) #26, !srcloc !10
  %.not = icmp eq i8 %4, 0
  br i1 %.not, label %9, label %5

5:                                                ; preds = %1
  %6 = load ptr, ptr @XLogCtl, align 8
  %7 = getelementptr inbounds nuw i8, ptr %6, i64 448
  %8 = tail call i32 @s_lock(ptr noundef nonnull %7, ptr noundef nonnull @.str.14, i32 noundef 2641, ptr noundef nonnull @__func__.XLogSetAsyncXactLSN) #26
  br label %9

9:                                                ; preds = %1, %5
  %10 = load ptr, ptr @XLogCtl, align 8
  %11 = getelementptr inbounds nuw i8, ptr %10, i64 216
  %12 = load i64, ptr %11, align 8
  %13 = icmp ult i64 %12, %0
  br i1 %13, label %17, label %14

14:                                               ; preds = %9
  tail call void asm sideeffect "", "~{memory},~{dirflag},~{fpsr},~{flags}"() #26, !srcloc !26
  %15 = load ptr, ptr @XLogCtl, align 8
  %16 = getelementptr inbounds nuw i8, ptr %15, i64 448
  store i8 0, ptr %16, align 8
  br label %44

17:                                               ; preds = %9
  %18 = getelementptr inbounds nuw i8, ptr %10, i64 329
  %19 = load i8, ptr %18, align 1, !range !4, !noundef !5
  %20 = trunc nuw i8 %19 to i1
  store i64 %0, ptr %11, align 8
  tail call void asm sideeffect "", "~{memory},~{dirflag},~{fpsr},~{flags}"() #26, !srcloc !26
  %21 = load ptr, ptr @XLogCtl, align 8
  %22 = getelementptr inbounds nuw i8, ptr %21, i64 448
  store i8 0, ptr %22, align 8
  br i1 %20, label %.critedge, label %23

23:                                               ; preds = %17
  %24 = getelementptr inbounds nuw i8, ptr %21, i64 280
  %25 = load volatile i64, ptr %24, align 8
  store i64 %25, ptr @LogwrtResult.1, align 8
  tail call void asm sideeffect "", "~{memory},~{dirflag},~{fpsr},~{flags}"() #26, !srcloc !27
  %26 = load ptr, ptr @XLogCtl, align 8
  %27 = getelementptr inbounds nuw i8, ptr %26, i64 272
  %28 = load volatile i64, ptr %27, align 8
  store i64 %28, ptr @LogwrtResult.0, align 8
  %29 = load i32, ptr @WalWriterFlushAfter, align 4
  %30 = icmp eq i32 %29, 0
  br i1 %30, label %.critedge, label %31

31:                                               ; preds = %23
  %32 = lshr i64 %0, 13
  %33 = load i64, ptr @LogwrtResult.1, align 8
  %34 = lshr i64 %33, 13
  %35 = sub nsw i64 %32, %34
  %36 = trunc i64 %35 to i32
  %.not16 = icmp sgt i32 %29, %36
  br i1 %.not16, label %44, label %.critedge

.critedge:                                        ; preds = %23, %31, %17
  %37 = load ptr, ptr @ProcGlobal, align 8
  %38 = getelementptr inbounds nuw i8, ptr %37, i64 112
  %39 = load volatile i32, ptr %38, align 8
  %.not17 = icmp eq i32 %39, -1
  br i1 %.not17, label %44, label %40

40:                                               ; preds = %.critedge
  %41 = load ptr, ptr %37, align 8
  %42 = sext i32 %39 to i64
  %43 = getelementptr inbounds %struct.PGPROC, ptr %41, i64 %42, i32 4
  tail call void @SetLatch(ptr noundef nonnull %43) #26
  br label %44

44:                                               ; preds = %14, %31, %40, %.critedge
  ret void
}